target datalayout = "e-m:e-p270:32:32-p271:32:32-p272:64:64-i64:64-i128:128-f80:128-n8:16:32:64-S128"
target triple = "x86_64-pc-linux-gnu"

%struct.print_field = type { i32, ptr, ptr, i16 }

@print_fields_parsable_print = dso_local global i32 0, align 4
@fields_delimiter = dso_local global ptr null, align 8
@.str = private unnamed_addr constant [3 x i8] c"%s\00", align 1
@.str.7 = private unnamed_addr constant [2 x i8] c" \00", align 1
@.str.8 = private unnamed_addr constant [2 x i8] c"|\00", align 1
@.str.9 = private unnamed_addr constant [5 x i8] c"%*s \00", align 1
@.str.10 = private unnamed_addr constant [3 x i8] c"%u\00", align 1
@.str.11 = private unnamed_addr constant [4 x i8] c"%u|\00", align 1
@.str.12 = private unnamed_addr constant [5 x i8] c"%u%s\00", align 1
@.str.13 = private unnamed_addr constant [5 x i8] c"%*u \00", align 1
@.str.14 = private unnamed_addr constant [6 x i8] c"%-*u \00", align 1

; Function Attrs: nounwind uwtable
define dso_local void @print_fields_uint16(ptr noundef %0, ptr noundef %1, i32 noundef %2) #0 {
  %4 = alloca ptr, align 8
  %5 = alloca ptr, align 8
  %6 = alloca i32, align 4
  %7 = alloca i32, align 4
  %8 = alloca i16, align 2
  store ptr %0, ptr %4, align 8
  store ptr %1, ptr %5, align 8
  store i32 %2, ptr %6, align 4
  call void @llvm.lifetime.start.p0(i64 4, ptr %7) #10
  %9 = load ptr, ptr %4, align 8
  %10 = getelementptr inbounds nuw %struct.print_field, ptr %9, i32 0, i32 0
  %11 = load i32, ptr %10, align 8
  %12 = call i32 @llvm.abs.i32(i32 %11, i1 true)
  store i32 %12, ptr %7, align 4
  call void @llvm.lifetime.start.p0(i64 2, ptr %8) #10
  store i16 -2, ptr %8, align 2
  %13 = load ptr, ptr %5, align 8
  %14 = icmp ne ptr %13, null
  br i1 %14, label %15, label %18

15:                                               ; preds = %3
  %16 = load ptr, ptr %5, align 8
  %17 = load i16, ptr %16, align 2
  store i16 %17, ptr %8, align 2
  br label %18

18:                                               ; preds = %15, %3
  %19 = load i16, ptr %8, align 2
  %20 = zext i16 %19 to i32
  %21 = icmp eq i32 %20, 65534
  br i1 %21, label %26, label %22

22:                                               ; preds = %18
  %23 = load i16, ptr %8, align 2
  %24 = zext i16 %23 to i32
  %25 = icmp eq i32 %24, 65535
  br i1 %25, label %26, label %58

26:                                               ; preds = %22, %18
  %27 = load i32, ptr @print_fields_parsable_print, align 4
  %28 = icmp eq i32 %27, 2
  br i1 %28, label %29, label %33

29:                                               ; preds = %26
  %30 = load i32, ptr %6, align 4
  %31 = icmp ne i32 %30, 0
  br i1 %31, label %32, label %33

32:                                               ; preds = %29
  br label %57

33:                                               ; preds = %29, %26
  %34 = load i32, ptr @print_fields_parsable_print, align 4
  %35 = icmp ne i32 %34, 0
  br i1 %35, label %36, label %41

36:                                               ; preds = %33
  %37 = load ptr, ptr @fields_delimiter, align 8
  %38 = icmp ne ptr %37, null
  br i1 %38, label %41, label %39

39:                                               ; preds = %36
  %40 = call i32 (ptr, ...) @printf(ptr noundef @.str.8)
  br label %56

41:                                               ; preds = %36, %33
  %42 = load i32, ptr @print_fields_parsable_print, align 4
  %43 = icmp ne i32 %42, 0
  br i1 %43, label %44, label %50

44:                                               ; preds = %41
  %45 = load ptr, ptr @fields_delimiter, align 8
  %46 = icmp ne ptr %45, null
  br i1 %46, label %47, label %50

47:                                               ; preds = %44
  %48 = load ptr, ptr @fields_delimiter, align 8
  %49 = call i32 (ptr, ...) @printf(ptr noundef @.str, ptr noundef %48)
  br label %55

50:                                               ; preds = %44, %41
  %51 = load ptr, ptr %4, align 8
  %52 = getelementptr inbounds nuw %struct.print_field, ptr %51, i32 0, i32 0
  %53 = load i32, ptr %52, align 8
  %54 = call i32 (ptr, ...) @printf(ptr noundef @.str.9, i32 noundef %53, ptr noundef @.str.7)
  br label %55

55:                                               ; preds = %50, %47
  br label %56

56:                                               ; preds = %55, %39
  br label %57

57:                                               ; preds = %56, %32
  br label %109

58:                                               ; preds = %22
  %59 = load i32, ptr @print_fields_parsable_print, align 4
  %60 = icmp eq i32 %59, 2
  br i1 %60, label %61, label %68

61:                                               ; preds = %58
  %62 = load i32, ptr %6, align 4
  %63 = icmp ne i32 %62, 0
  br i1 %63, label %64, label %68

64:                                               ; preds = %61
  %65 = load i16, ptr %8, align 2
  %66 = zext i16 %65 to i32
  %67 = call i32 (ptr, ...) @printf(ptr noundef @.str.10, i32 noundef %66)
  br label %108

68:                                               ; preds = %61, %58
  %69 = load i32, ptr @print_fields_parsable_print, align 4
  %70 = icmp ne i32 %69, 0
  br i1 %70, label %71, label %78

71:                                               ; preds = %68
  %72 = load ptr, ptr @fields_delimiter, align 8
  %73 = icmp ne ptr %72, null
  br i1 %73, label %78, label %74

74:                                               ; preds = %71
  %75 = load i16, ptr %8, align 2
  %76 = zext i16 %75 to i32
  %77 = call i32 (ptr, ...) @printf(ptr noundef @.str.11, i32 noundef %76)
  br label %107

78:                                               ; preds = %71, %68
  %79 = load i32, ptr @print_fields_parsable_print, align 4
  %80 = icmp ne i32 %79, 0
  br i1 %80, label %81, label %89

81:                                               ; preds = %78
  %82 = load ptr, ptr @fields_delimiter, align 8
  %83 = icmp ne ptr %82, null
  br i1 %83, label %84, label %89

84:                                               ; preds = %81
  %85 = load i16, ptr %8, align 2
  %86 = zext i16 %85 to i32
  %87 = load ptr, ptr @fields_delimiter, align 8
  %88 = call i32 (ptr, ...) @printf(ptr noundef @.str.12, i32 noundef %86, ptr noundef %87)
  br label %106

89:                                               ; preds = %81, %78
  %90 = load ptr, ptr %4, align 8
  %91 = getelementptr inbounds nuw %struct.print_field, ptr %90, i32 0, i32 0
  %92 = load i32, ptr %91, align 8
  %93 = load i32, ptr %7, align 4
  %94 = icmp eq i32 %92, %93
  br i1 %94, label %95, label %100

95:                                               ; preds = %89
  %96 = load i32, ptr %7, align 4
  %97 = load i16, ptr %8, align 2
  %98 = zext i16 %97 to i32
  %99 = call i32 (ptr, ...) @printf(ptr noundef @.str.13, i32 noundef %96, i32 noundef %98)
  br label %105

100:                                              ; preds = %89
  %101 = load i32, ptr %7, align 4
  %102 = load i16, ptr %8, align 2
  %103 = zext i16 %102 to i32
  %104 = call i32 (ptr, ...) @printf(ptr noundef @.str.14, i32 noundef %101, i32 noundef %103)
  br label %105

105:                                              ; preds = %100, %95
  br label %106

106:                                              ; preds = %105, %84
  br label %107

107:                                              ; preds = %106, %74
  br label %108

108:                                              ; preds = %107, %64
  br label %109

109:                                              ; preds = %108, %57
  call void @llvm.lifetime.end.p0(i64 2, ptr %8) #10
  call void @llvm.lifetime.end.p0(i64 4, ptr %7) #10
  ret void
}