; Function Attrs: nofree nounwind uwtable
define dso_local void @print_fields_uint16(ptr noundef readonly captures(none) %0, ptr noundef readonly captures(address_is_null) %1, i32 noundef %2) local_unnamed_addr #5 {
  %4 = load i32, ptr %0, align 8
  %5 = tail call i32 @llvm.abs.i32(i32 %4, i1 true)
  %.not = icmp eq ptr %1, null
  br i1 %.not, label %.thread, label %6

6:                                                ; preds = %3
  %7 = load i16, ptr %1, align 2
  %8 = zext i16 %7 to i32
  %9 = and i32 %8, 65534
  %or.cond = icmp eq i32 %9, 65534
  br i1 %or.cond, label %.thread, label %26

.thread:                                          ; preds = %3, %6
  %10 = load i32, ptr @print_fields_parsable_print, align 4
  %11 = icmp eq i32 %10, 2
  %12 = icmp ne i32 %2, 0
  %or.cond4 = and i1 %12, %11
  br i1 %or.cond4, label %48, label %13

13:                                               ; preds = %.thread
  %14 = icmp eq i32 %10, 0
  %15 = load ptr, ptr @fields_delimiter, align 8
  %16 = icmp ne ptr %15, null
  %or.cond6 = select i1 %14, i1 true, i1 %16
  br i1 %or.cond6, label %20, label %17

17:                                               ; preds = %13
  %18 = load ptr, ptr @stdout, align 8
  %19 = tail call noundef i32 @putc(i32 noundef 124, ptr noundef %18)
  br label %48

20:                                               ; preds = %13
  %21 = icmp ne i32 %10, 0
  %or.cond8 = select i1 %21, i1 %16, i1 false
  br i1 %or.cond8, label %22, label %24

22:                                               ; preds = %20
  %23 = tail call i32 (ptr, ...) @printf(ptr noundef nonnull dereferenceable(1) @.str, ptr noundef nonnull %15)
  br label %48

24:                                               ; preds = %20
  %25 = tail call i32 (ptr, ...) @printf(ptr noundef nonnull dereferenceable(1) @.str.9, i32 noundef %4, ptr noundef nonnull @.str.7)
  br label %48

26:                                               ; preds = %6
  %27 = load i32, ptr @print_fields_parsable_print, align 4
  %28 = icmp eq i32 %27, 2
  %29 = icmp ne i32 %2, 0
  %or.cond10 = and i1 %29, %28
  br i1 %or.cond10, label %30, label %32

30:                                               ; preds = %26
  %31 = tail call i32 (ptr, ...) @printf(ptr noundef nonnull dereferenceable(1) @.str.10, i32 noundef %8)
  br label %48

32:                                               ; preds = %26
  %33 = icmp eq i32 %27, 0
  %34 = load ptr, ptr @fields_delimiter, align 8
  %35 = icmp ne ptr %34, null
  %or.cond12 = select i1 %33, i1 true, i1 %35
  br i1 %or.cond12, label %38, label %36

36:                                               ; preds = %32
  %37 = tail call i32 (ptr, ...) @printf(ptr noundef nonnull dereferenceable(1) @.str.11, i32 noundef %8)
  br label %48

38:                                               ; preds = %32
  %39 = icmp ne i32 %27, 0
  %or.cond14 = select i1 %39, i1 %35, i1 false
  br i1 %or.cond14, label %40, label %42

40:                                               ; preds = %38
  %41 = tail call i32 (ptr, ...) @printf(ptr noundef nonnull dereferenceable(1) @.str.12, i32 noundef %8, ptr noundef nonnull %34)
  br label %48

42:                                               ; preds = %38
  %43 = icmp sgt i32 %4, -1
  br i1 %43, label %44, label %46

44:                                               ; preds = %42
  %45 = tail call i32 (ptr, ...) @printf(ptr noundef nonnull dereferenceable(1) @.str.13, i32 noundef %5, i32 noundef %8)
  br label %48

46:                                               ; preds = %42
  %47 = tail call i32 (ptr, ...) @printf(ptr noundef nonnull dereferenceable(1) @.str.14, i32 noundef %5, i32 noundef %8)
  br label %48

48:                                               ; preds = %30, %40, %46, %44, %36, %.thread, %22, %24, %17
  ret void
}